ARM GAS  C:\Users\DHEERA~1\AppData\Local\Temp\ccDKDu2t.s 			page 1


   1              		.syntax unified
   2              		.cpu cortex-m3
   3              		.fpu softvfp
   4              		.eabi_attribute 20, 1
   5              		.eabi_attribute 21, 1
   6              		.eabi_attribute 23, 3
   7              		.eabi_attribute 24, 1
   8              		.eabi_attribute 25, 1
   9              		.eabi_attribute 26, 1
  10              		.eabi_attribute 30, 1
  11              		.eabi_attribute 34, 1
  12              		.eabi_attribute 18, 4
  13              		.thumb
  14              		.syntax unified
  15              		.file	"functions.c"
  16              		.text
  17              	.Ltext0:
  18              		.cfi_sections	.debug_frame
  19              		.section	.text.Button_ISR_Handler,"ax",%progbits
  20              		.align	2
  21              		.global	Button_ISR_Handler
  22              		.thumb
  23              		.thumb_func
  24              		.type	Button_ISR_Handler, %function
  25              	Button_ISR_Handler:
  26              	.LFB63:
  27              		.file 1 "functions.c"
   1:functions.c   **** /**
   2:functions.c   ****  * @file functions.c
   3:functions.c   ****  * @brief Implementation of hardware abstraction and support functions.
   4:functions.c   ****  */
   5:functions.c   **** 
   6:functions.c   **** #include "functions.h"
   7:functions.c   **** 
   8:functions.c   **** // Global variable definitions
   9:functions.c   **** State state = IDLE;
  10:functions.c   **** uint16_t adcBuffer[NUM_OF_SAMPLES];
  11:functions.c   **** volatile uint8_t buttonPressed = 0;
  12:functions.c   **** uint8_t sampleCount = 0;
  13:functions.c   **** volatile uint8_t uart_s_received = 0;
  14:functions.c   **** volatile uint8_t uart_o_received = 0;
  15:functions.c   **** 
  16:functions.c   **** /**
  17:functions.c   ****  * @brief ISR for button press.
  18:functions.c   ****  * 
  19:functions.c   ****  * Sets buttonPressed flag and clears interrupt.
  20:functions.c   ****  */
  21:functions.c   **** CY_ISR(Button_ISR_Handler)
  22:functions.c   **** {
  28              		.loc 1 22 0
  29              		.cfi_startproc
  30              		@ args = 0, pretend = 0, frame = 0
  31              		@ frame_needed = 0, uses_anonymous_args = 0
  32 0000 08B5     		push	{r3, lr}
  33              		.cfi_def_cfa_offset 8
  34              		.cfi_offset 3, -8
  35              		.cfi_offset 14, -4
ARM GAS  C:\Users\DHEERA~1\AppData\Local\Temp\ccDKDu2t.s 			page 2


  23:functions.c   ****     buttonPressed = 1;
  36              		.loc 1 23 0
  37 0002 0122     		movs	r2, #1
  38 0004 034B     		ldr	r3, .L3
  39 0006 1A70     		strb	r2, [r3]
  24:functions.c   ****     isr_Button_ClearPending();
  40              		.loc 1 24 0
  41 0008 FFF7FEFF 		bl	isr_Button_ClearPending
  42              	.LVL0:
  25:functions.c   ****     Button_ClearInterrupt();
  43              		.loc 1 25 0
  44 000c FFF7FEFF 		bl	Button_ClearInterrupt
  45              	.LVL1:
  46 0010 08BD     		pop	{r3, pc}
  47              	.L4:
  48 0012 00BF     		.align	2
  49              	.L3:
  50 0014 00000000 		.word	.LANCHOR0
  51              		.cfi_endproc
  52              	.LFE63:
  53              		.size	Button_ISR_Handler, .-Button_ISR_Handler
  54              		.section	.text.UART_ISR_Handler,"ax",%progbits
  55              		.align	2
  56              		.global	UART_ISR_Handler
  57              		.thumb
  58              		.thumb_func
  59              		.type	UART_ISR_Handler, %function
  60              	UART_ISR_Handler:
  61              	.LFB64:
  26:functions.c   **** }
  27:functions.c   **** 
  28:functions.c   **** /**
  29:functions.c   ****  * @brief ISR for UART.
  30:functions.c   ****  * 
  31:functions.c   ****  * Sets uart_s_received and uart_o_received flag and clears interrupt.
  32:functions.c   ****  */
  33:functions.c   **** CY_ISR(UART_ISR_Handler)
  34:functions.c   **** {
  62              		.loc 1 34 0
  63              		.cfi_startproc
  64              		@ args = 0, pretend = 0, frame = 0
  65              		@ frame_needed = 0, uses_anonymous_args = 0
  66 0000 08B5     		push	{r3, lr}
  67              		.cfi_def_cfa_offset 8
  68              		.cfi_offset 3, -8
  69              		.cfi_offset 14, -4
  35:functions.c   ****     uint8_t rxChar = UART_LOG_GetChar();
  70              		.loc 1 35 0
  71 0002 FFF7FEFF 		bl	UART_LOG_GetChar
  72              	.LVL2:
  36:functions.c   **** 
  37:functions.c   ****     if (rxChar == 's')
  73              		.loc 1 37 0
  74 0006 7328     		cmp	r0, #115
  75 0008 03D1     		bne	.L6
  38:functions.c   ****         uart_s_received = 1;
  76              		.loc 1 38 0
ARM GAS  C:\Users\DHEERA~1\AppData\Local\Temp\ccDKDu2t.s 			page 3


  77 000a 0122     		movs	r2, #1
  78 000c 054B     		ldr	r3, .L9
  79 000e 5A70     		strb	r2, [r3, #1]
  80 0010 04E0     		b	.L7
  81              	.L6:
  39:functions.c   ****     else if (rxChar == 'o')
  82              		.loc 1 39 0
  83 0012 6F28     		cmp	r0, #111
  84 0014 02D1     		bne	.L7
  40:functions.c   ****         uart_o_received = 1;
  85              		.loc 1 40 0
  86 0016 0122     		movs	r2, #1
  87 0018 024B     		ldr	r3, .L9
  88 001a 9A70     		strb	r2, [r3, #2]
  89              	.L7:
  41:functions.c   **** 
  42:functions.c   ****     isr_UART_ClearPending();
  90              		.loc 1 42 0
  91 001c FFF7FEFF 		bl	isr_UART_ClearPending
  92              	.LVL3:
  93 0020 08BD     		pop	{r3, pc}
  94              	.L10:
  95 0022 00BF     		.align	2
  96              	.L9:
  97 0024 00000000 		.word	.LANCHOR0
  98              		.cfi_endproc
  99              	.LFE64:
 100              		.size	UART_ISR_Handler, .-UART_ISR_Handler
 101              		.section	.text.sampleADC,"ax",%progbits
 102              		.align	2
 103              		.global	sampleADC
 104              		.thumb
 105              		.thumb_func
 106              		.type	sampleADC, %function
 107              	sampleADC:
 108              	.LFB65:
  43:functions.c   **** }
  44:functions.c   **** 
  45:functions.c   **** 
  46:functions.c   **** /**
  47:functions.c   ****  * @brief Samples ADC and stores values in adcBuffer.
  48:functions.c   ****  * 
  49:functions.c   ****  * Uses blocking method to wait for each conversion to complete.
  50:functions.c   ****  */
  51:functions.c   **** void sampleADC()
  52:functions.c   **** {
 109              		.loc 1 52 0
 110              		.cfi_startproc
 111              		@ args = 0, pretend = 0, frame = 0
 112              		@ frame_needed = 0, uses_anonymous_args = 0
 113 0000 10B5     		push	{r4, lr}
 114              		.cfi_def_cfa_offset 8
 115              		.cfi_offset 4, -8
 116              		.cfi_offset 14, -4
 117              	.LVL4:
 118              	.LBB2:
  53:functions.c   ****     uint16_t output;
ARM GAS  C:\Users\DHEERA~1\AppData\Local\Temp\ccDKDu2t.s 			page 4


  54:functions.c   ****     for (int i = 0; i < NUM_OF_SAMPLES; i++)
 119              		.loc 1 54 0
 120 0002 0024     		movs	r4, #0
 121 0004 0CE0     		b	.L12
 122              	.LVL5:
 123              	.L14:
  55:functions.c   ****     {
  56:functions.c   ****         ADC_StartConvert();
 124              		.loc 1 56 0
 125 0006 FFF7FEFF 		bl	ADC_StartConvert
 126              	.LVL6:
 127              	.L13:
  57:functions.c   ****         while (!ADC_IsEndConversion(ADC_RETURN_STATUS));  /**< Wait until conversion finishes */
 128              		.loc 1 57 0 discriminator 1
 129 000a 0120     		movs	r0, #1
 130 000c FFF7FEFF 		bl	ADC_IsEndConversion
 131              	.LVL7:
 132 0010 0028     		cmp	r0, #0
 133 0012 FAD0     		beq	.L13
  58:functions.c   ****         output = ADC_GetResult16();
 134              		.loc 1 58 0 discriminator 2
 135 0014 FFF7FEFF 		bl	ADC_GetResult16
 136              	.LVL8:
  59:functions.c   ****         adcBuffer[i] = output;
 137              		.loc 1 59 0 discriminator 2
 138 0018 034B     		ldr	r3, .L16
 139 001a 23F81400 		strh	r0, [r3, r4, lsl #1]	@ movhi
  54:functions.c   ****     {
 140              		.loc 1 54 0 discriminator 2
 141 001e 0134     		adds	r4, r4, #1
 142              	.LVL9:
 143              	.L12:
  54:functions.c   ****     {
 144              		.loc 1 54 0 is_stmt 0 discriminator 1
 145 0020 B4F5806F 		cmp	r4, #1024
 146 0024 EFDB     		blt	.L14
 147              	.LBE2:
  60:functions.c   ****     }
  61:functions.c   **** }
 148              		.loc 1 61 0 is_stmt 1
 149 0026 10BD     		pop	{r4, pc}
 150              	.LVL10:
 151              	.L17:
 152              		.align	2
 153              	.L16:
 154 0028 00000000 		.word	adcBuffer
 155              		.cfi_endproc
 156              	.LFE65:
 157              		.size	sampleADC, .-sampleADC
 158              		.section	.text.uartSendBuffer,"ax",%progbits
 159              		.align	2
 160              		.global	uartSendBuffer
 161              		.thumb
 162              		.thumb_func
 163              		.type	uartSendBuffer, %function
 164              	uartSendBuffer:
 165              	.LFB66:
ARM GAS  C:\Users\DHEERA~1\AppData\Local\Temp\ccDKDu2t.s 			page 5


  62:functions.c   **** 
  63:functions.c   **** /**
  64:functions.c   ****  * @brief Sends the ADC buffer over UART.
  65:functions.c   ****  * 
  66:functions.c   ****  * Each 16-bit sample is sent as two bytes: LSB followed by MSB.
  67:functions.c   ****  */
  68:functions.c   **** void uartSendBuffer()
  69:functions.c   **** {
 166              		.loc 1 69 0
 167              		.cfi_startproc
 168              		@ args = 0, pretend = 0, frame = 0
 169              		@ frame_needed = 0, uses_anonymous_args = 0
 170 0000 38B5     		push	{r3, r4, r5, lr}
 171              		.cfi_def_cfa_offset 16
 172              		.cfi_offset 3, -16
 173              		.cfi_offset 4, -12
 174              		.cfi_offset 5, -8
 175              		.cfi_offset 14, -4
 176              	.LVL11:
 177              	.LBB3:
  70:functions.c   ****     for (int i = 0; i < NUM_OF_SAMPLES; i++)
 178              		.loc 1 70 0
 179 0002 0024     		movs	r4, #0
 180 0004 0AE0     		b	.L19
 181              	.LVL12:
 182              	.L20:
  71:functions.c   ****     {
  72:functions.c   ****         UART_LOG_PutChar(adcBuffer[i] & 0xFF);         /**< Send LSB */
 183              		.loc 1 72 0 discriminator 3
 184 0006 074D     		ldr	r5, .L22
 185 0008 15F81400 		ldrb	r0, [r5, r4, lsl #1]	@ zero_extendqisi2
 186 000c FFF7FEFF 		bl	UART_LOG_PutChar
 187              	.LVL13:
  73:functions.c   ****         UART_LOG_PutChar((adcBuffer[i] >> 8) & 0xFF);  /**< Send MSB */
 188              		.loc 1 73 0 discriminator 3
 189 0010 35F81400 		ldrh	r0, [r5, r4, lsl #1]
 190 0014 000A     		lsrs	r0, r0, #8
 191 0016 FFF7FEFF 		bl	UART_LOG_PutChar
 192              	.LVL14:
  70:functions.c   ****     for (int i = 0; i < NUM_OF_SAMPLES; i++)
 193              		.loc 1 70 0 discriminator 3
 194 001a 0134     		adds	r4, r4, #1
 195              	.LVL15:
 196              	.L19:
  70:functions.c   ****     for (int i = 0; i < NUM_OF_SAMPLES; i++)
 197              		.loc 1 70 0 is_stmt 0 discriminator 1
 198 001c B4F5806F 		cmp	r4, #1024
 199 0020 F1DB     		blt	.L20
 200              	.LBE3:
  74:functions.c   ****     }
  75:functions.c   **** }
 201              		.loc 1 75 0 is_stmt 1
 202 0022 38BD     		pop	{r3, r4, r5, pc}
 203              	.LVL16:
 204              	.L23:
 205              		.align	2
 206              	.L22:
ARM GAS  C:\Users\DHEERA~1\AppData\Local\Temp\ccDKDu2t.s 			page 6


 207 0024 00000000 		.word	adcBuffer
 208              		.cfi_endproc
 209              	.LFE66:
 210              		.size	uartSendBuffer, .-uartSendBuffer
 211              		.section	.text.updateLEDs,"ax",%progbits
 212              		.align	2
 213              		.global	updateLEDs
 214              		.thumb
 215              		.thumb_func
 216              		.type	updateLEDs, %function
 217              	updateLEDs:
 218              	.LFB67:
  76:functions.c   **** 
  77:functions.c   **** /**
  78:functions.c   ****  * @brief Controls the state of status LEDs.
  79:functions.c   ****  * 
  80:functions.c   ****  * @param red     Red LED state (0 or 1)
  81:functions.c   ****  * @param orange  Orange LED state (0 or 1)
  82:functions.c   ****  * @param green   Green LED state (0 or 1)
  83:functions.c   ****  */
  84:functions.c   **** void updateLEDs(uint8_t red, uint8_t orange, uint8_t green)
  85:functions.c   **** {
 219              		.loc 1 85 0
 220              		.cfi_startproc
 221              		@ args = 0, pretend = 0, frame = 0
 222              		@ frame_needed = 0, uses_anonymous_args = 0
 223              	.LVL17:
 224 0000 38B5     		push	{r3, r4, r5, lr}
 225              		.cfi_def_cfa_offset 16
 226              		.cfi_offset 3, -16
 227              		.cfi_offset 4, -12
 228              		.cfi_offset 5, -8
 229              		.cfi_offset 14, -4
 230 0002 0D46     		mov	r5, r1
 231 0004 1446     		mov	r4, r2
  86:functions.c   ****     led_red_Write(red);
 232              		.loc 1 86 0
 233 0006 FFF7FEFF 		bl	led_red_Write
 234              	.LVL18:
  87:functions.c   ****     led_orange_Write(orange);
 235              		.loc 1 87 0
 236 000a 2846     		mov	r0, r5
 237 000c FFF7FEFF 		bl	led_orange_Write
 238              	.LVL19:
  88:functions.c   ****     led_green_Write(green);
 239              		.loc 1 88 0
 240 0010 2046     		mov	r0, r4
 241 0012 FFF7FEFF 		bl	led_green_Write
 242              	.LVL20:
 243 0016 38BD     		pop	{r3, r4, r5, pc}
 244              		.cfi_endproc
 245              	.LFE67:
 246              		.size	updateLEDs, .-updateLEDs
 247              		.section	.text.initializeHardware,"ax",%progbits
 248              		.align	2
 249              		.global	initializeHardware
 250              		.thumb
ARM GAS  C:\Users\DHEERA~1\AppData\Local\Temp\ccDKDu2t.s 			page 7


 251              		.thumb_func
 252              		.type	initializeHardware, %function
 253              	initializeHardware:
 254              	.LFB68:
  89:functions.c   **** }
  90:functions.c   **** 
  91:functions.c   **** /**
  92:functions.c   ****  * @brief Initializes all hardware components.
  93:functions.c   ****  * 
  94:functions.c   ****  * Starts DAC, ADC, UART, button interrupt, and turns off all LEDs.
  95:functions.c   ****  */
  96:functions.c   **** void initializeHardware()
  97:functions.c   **** {
 255              		.loc 1 97 0
 256              		.cfi_startproc
 257              		@ args = 0, pretend = 0, frame = 0
 258              		@ frame_needed = 0, uses_anonymous_args = 0
 259 0000 08B5     		push	{r3, lr}
 260              		.cfi_def_cfa_offset 8
 261              		.cfi_offset 3, -8
 262              		.cfi_offset 14, -4
  98:functions.c   ****     WaveDAC8_1_Start();      /**< Start waveform generator (DAC) */
 263              		.loc 1 98 0
 264 0002 FFF7FEFF 		bl	WaveDAC8_1_Start
 265              	.LVL21:
  99:functions.c   ****     UART_LOG_Start();        /**< Initialize UART communication */
 266              		.loc 1 99 0
 267 0006 FFF7FEFF 		bl	UART_LOG_Start
 268              	.LVL22:
 100:functions.c   ****     ADC_Start();             /**< Start ADC peripheral */
 269              		.loc 1 100 0
 270 000a FFF7FEFF 		bl	ADC_Start
 271              	.LVL23:
 101:functions.c   ****     isr_Button_StartEx(Button_ISR_Handler);  /**< Attach ISR */
 272              		.loc 1 101 0
 273 000e 0648     		ldr	r0, .L28
 274 0010 FFF7FEFF 		bl	isr_Button_StartEx
 275              	.LVL24:
 102:functions.c   ****     isr_UART_StartEx(UART_ISR_Handler); /**< Attach ISR */
 276              		.loc 1 102 0
 277 0014 0548     		ldr	r0, .L28+4
 278 0016 FFF7FEFF 		bl	isr_UART_StartEx
 279              	.LVL25:
 103:functions.c   ****     updateLEDs(0, 0, 0);     /**< Turn off all LEDs initially */
 280              		.loc 1 103 0
 281 001a 0022     		movs	r2, #0
 282 001c 1146     		mov	r1, r2
 283 001e 1046     		mov	r0, r2
 284 0020 FFF7FEFF 		bl	updateLEDs
 285              	.LVL26:
 286 0024 08BD     		pop	{r3, pc}
 287              	.L29:
 288 0026 00BF     		.align	2
 289              	.L28:
 290 0028 00000000 		.word	Button_ISR_Handler
 291 002c 00000000 		.word	UART_ISR_Handler
 292              		.cfi_endproc
ARM GAS  C:\Users\DHEERA~1\AppData\Local\Temp\ccDKDu2t.s 			page 8


 293              	.LFE68:
 294              		.size	initializeHardware, .-initializeHardware
 295              		.section	.text.flushRxBuffer,"ax",%progbits
 296              		.align	2
 297              		.global	flushRxBuffer
 298              		.thumb
 299              		.thumb_func
 300              		.type	flushRxBuffer, %function
 301              	flushRxBuffer:
 302              	.LFB69:
 104:functions.c   **** }
 105:functions.c   **** 
 106:functions.c   **** /**
 107:functions.c   ****  * @brief Clears all pending bytes in UART RX buffer.
 108:functions.c   ****  */
 109:functions.c   **** void flushRxBuffer()
 110:functions.c   **** {
 303              		.loc 1 110 0
 304              		.cfi_startproc
 305              		@ args = 0, pretend = 0, frame = 0
 306              		@ frame_needed = 0, uses_anonymous_args = 0
 307 0000 08B5     		push	{r3, lr}
 308              		.cfi_def_cfa_offset 8
 309              		.cfi_offset 3, -8
 310              		.cfi_offset 14, -4
 111:functions.c   ****     while(UART_LOG_GetRxBufferSize())
 311              		.loc 1 111 0
 312 0002 01E0     		b	.L31
 313              	.L32:
 112:functions.c   ****     {
 113:functions.c   ****         UART_LOG_GetChar();  /**< Discard unread character */
 314              		.loc 1 113 0
 315 0004 FFF7FEFF 		bl	UART_LOG_GetChar
 316              	.LVL27:
 317              	.L31:
 111:functions.c   ****     while(UART_LOG_GetRxBufferSize())
 318              		.loc 1 111 0
 319 0008 FFF7FEFF 		bl	UART_LOG_GetRxBufferSize
 320              	.LVL28:
 321 000c 0028     		cmp	r0, #0
 322 000e F9D1     		bne	.L32
 114:functions.c   ****     }
 115:functions.c   **** }
 323              		.loc 1 115 0
 324 0010 08BD     		pop	{r3, pc}
 325              		.cfi_endproc
 326              	.LFE69:
 327              		.size	flushRxBuffer, .-flushRxBuffer
 328              		.global	uart_o_received
 329              		.global	uart_s_received
 330              		.global	sampleCount
 331              		.global	buttonPressed
 332              		.comm	adcBuffer,2048,4
 333              		.global	state
 334 0012 00BF     		.bss
 335              		.set	.LANCHOR0,. + 0
 336              		.type	buttonPressed, %object
ARM GAS  C:\Users\DHEERA~1\AppData\Local\Temp\ccDKDu2t.s 			page 9


 337              		.size	buttonPressed, 1
 338              	buttonPressed:
 339 0000 00       		.space	1
 340              		.type	uart_s_received, %object
 341              		.size	uart_s_received, 1
 342              	uart_s_received:
 343 0001 00       		.space	1
 344              		.type	uart_o_received, %object
 345              		.size	uart_o_received, 1
 346              	uart_o_received:
 347 0002 00       		.space	1
 348              		.type	sampleCount, %object
 349              		.size	sampleCount, 1
 350              	sampleCount:
 351 0003 00       		.space	1
 352              		.type	state, %object
 353              		.size	state, 1
 354              	state:
 355 0004 00       		.space	1
 356              		.text
 357              	.Letext0:
 358              		.file 2 "d:\\psoc creator\\4.4\\psoc creator\\import\\gnu\\arm\\5.4.1\\arm-none-eabi\\include\\mac
 359              		.file 3 "d:\\psoc creator\\4.4\\psoc creator\\import\\gnu\\arm\\5.4.1\\arm-none-eabi\\include\\sys
 360              		.file 4 "functions.h"
 361              		.file 5 "Generated_Source\\PSoC5/core_cm3.h"
 362              		.file 6 "Generated_Source\\PSoC5/isr_Button.h"
 363              		.file 7 "Generated_Source\\PSoC5/Button.h"
 364              		.file 8 "Generated_Source\\PSoC5/UART_LOG.h"
 365              		.file 9 "Generated_Source\\PSoC5/isr_UART.h"
 366              		.file 10 "Generated_Source\\PSoC5/ADC.h"
 367              		.file 11 "Generated_Source\\PSoC5/led_red.h"
 368              		.file 12 "Generated_Source\\PSoC5/led_orange.h"
 369              		.file 13 "Generated_Source\\PSoC5/led_green.h"
 370              		.file 14 "Generated_Source\\PSoC5/WaveDAC8_1.h"